; ModuleID = '28/1909.c'
source_filename = "28/1909.c"
target datalayout = "e-m:e-p270:32:32-p271:32:32-p272:64:64-i64:64-f80:128-n8:16:32:64-S128"
target triple = "x86_64-pc-linux-gnu"

@.str = private unnamed_addr constant [3 x i8] c"%d\00", align 1
@.str.1 = private unnamed_addr constant [4 x i8] c"%d,\00", align 1

; Function Attrs: noinline nounwind uwtable
define dso_local i32 @main() #0 {
  %1 = alloca i32, align 4
  %2 = alloca [10000 x i8], align 16
  %3 = alloca [400 x i32], align 16
  %4 = alloca i32, align 4
  %5 = alloca i32, align 4
  %6 = alloca i32, align 4
  %7 = alloca i32, align 4
  %8 = alloca i32, align 4
  %9 = alloca i32, align 4
  store i32 0, i32* %1, align 4
  %10 = getelementptr inbounds [10000 x i8], [10000 x i8]* %2, i64 0, i64 0
  %11 = call i32 (i8*, ...) bitcast (i32 (...)* @gets to i32 (i8*, ...)*)(i8* %10)
  store i32 0, i32* %4, align 4
  br label %12

12:                                               ; preds = %59, %0
  %13 = load i32, i32* %4, align 4
  %14 = sext i32 %13 to i64
  %15 = getelementptr inbounds [10000 x i8], [10000 x i8]* %2, i64 0, i64 0
  %16 = call i64 @strlen(i8* %15) #3
  %17 = sub i64 %16, 1
  %18 = icmp ule i64 %14, %17
  br i1 %18, label %19, label %62

19:                                               ; preds = %12
  %20 = load i32, i32* %4, align 4
  %21 = sext i32 %20 to i64
  %22 = getelementptr inbounds [10000 x i8], [10000 x i8]* %2, i64 0, i64 %21
  %23 = load i8, i8* %22, align 1
  %24 = sext i8 %23 to i32
  %25 = icmp eq i32 %24, 32
  br i1 %25, label %26, label %58

26:                                               ; preds = %19
  %27 = load i32, i32* %4, align 4
  %28 = add nsw i32 %27, 1
  %29 = sext i32 %28 to i64
  %30 = getelementptr inbounds [10000 x i8], [10000 x i8]* %2, i64 0, i64 %29
  %31 = load i8, i8* %30, align 1
  %32 = sext i8 %31 to i32
  %33 = icmp eq i32 %32, 32
  br i1 %33, label %34, label %58

34:                                               ; preds = %26
  %35 = load i32, i32* %4, align 4
  store i32 %35, i32* %5, align 4
  br label %36

36:                                               ; preds = %52, %34
  %37 = load i32, i32* %5, align 4
  %38 = sext i32 %37 to i64
  %39 = getelementptr inbounds [10000 x i8], [10000 x i8]* %2, i64 0, i64 0
  %40 = call i64 @strlen(i8* %39) #3
  %41 = sub i64 %40, 1
  %42 = icmp ule i64 %38, %41
  br i1 %42, label %43, label %55

43:                                               ; preds = %36
  %44 = load i32, i32* %5, align 4
  %45 = add nsw i32 %44, 1
  %46 = sext i32 %45 to i64
  %47 = getelementptr inbounds [10000 x i8], [10000 x i8]* %2, i64 0, i64 %46
  %48 = load i8, i8* %47, align 1
  %49 = load i32, i32* %5, align 4
  %50 = sext i32 %49 to i64
  %51 = getelementptr inbounds [10000 x i8], [10000 x i8]* %2, i64 0, i64 %50
  store i8 %48, i8* %51, align 1
  br label %52

52:                                               ; preds = %43
  %53 = load i32, i32* %5, align 4
  %54 = add nsw i32 %53, 1
  store i32 %54, i32* %5, align 4
  br label %36

55:                                               ; preds = %36
  %56 = load i32, i32* %4, align 4
  %57 = add nsw i32 %56, -1
  store i32 %57, i32* %4, align 4
  br label %58

58:                                               ; preds = %55, %26, %19
  br label %59

59:                                               ; preds = %58
  %60 = load i32, i32* %4, align 4
  %61 = add nsw i32 %60, 1
  store i32 %61, i32* %4, align 4
  br label %12

62:                                               ; preds = %12
  store i32 0, i32* %6, align 4
  store i32 0, i32* %7, align 4
  br label %63

63:                                               ; preds = %85, %62
  %64 = load i32, i32* %7, align 4
  %65 = sext i32 %64 to i64
  %66 = getelementptr inbounds [10000 x i8], [10000 x i8]* %2, i64 0, i64 0
  %67 = call i64 @strlen(i8* %66) #3
  %68 = sub i64 %67, 1
  %69 = icmp ule i64 %65, %68
  br i1 %69, label %70, label %88

70:                                               ; preds = %63
  %71 = load i32, i32* %7, align 4
  %72 = sext i32 %71 to i64
  %73 = getelementptr inbounds [10000 x i8], [10000 x i8]* %2, i64 0, i64 %72
  %74 = load i8, i8* %73, align 1
  %75 = sext i8 %74 to i32
  %76 = icmp eq i32 %75, 32
  br i1 %76, label %77, label %84

77:                                               ; preds = %70
  %78 = load i32, i32* %7, align 4
  %79 = load i32, i32* %6, align 4
  %80 = sext i32 %79 to i64
  %81 = getelementptr inbounds [400 x i32], [400 x i32]* %3, i64 0, i64 %80
  store i32 %78, i32* %81, align 4
  %82 = load i32, i32* %6, align 4
  %83 = add nsw i32 %82, 1
  store i32 %83, i32* %6, align 4
  br label %84

84:                                               ; preds = %77, %70
  br label %85

85:                                               ; preds = %84
  %86 = load i32, i32* %7, align 4
  %87 = add nsw i32 %86, 1
  store i32 %87, i32* %7, align 4
  br label %63

88:                                               ; preds = %63
  %89 = load i32, i32* %6, align 4
  %90 = icmp eq i32 %89, 0
  br i1 %90, label %91, label %95

91:                                               ; preds = %88
  %92 = getelementptr inbounds [10000 x i8], [10000 x i8]* %2, i64 0, i64 0
  %93 = call i64 @strlen(i8* %92) #3
  %94 = call i32 (i8*, ...) @printf(i8* getelementptr inbounds ([3 x i8], [3 x i8]* @.str, i64 0, i64 0), i64 %93)
  br label %132

95:                                               ; preds = %88
  %96 = getelementptr inbounds [400 x i32], [400 x i32]* %3, i64 0, i64 0
  %97 = load i32, i32* %96, align 16
  %98 = call i32 (i8*, ...) @printf(i8* getelementptr inbounds ([4 x i8], [4 x i8]* @.str.1, i64 0, i64 0), i32 %97)
  store i32 0, i32* %8, align 4
  br label %99

99:                                               ; preds = %117, %95
  %100 = load i32, i32* %8, align 4
  %101 = load i32, i32* %6, align 4
  %102 = sub nsw i32 %101, 2
  %103 = icmp sle i32 %100, %102
  br i1 %103, label %104, label %120

104:                                              ; preds = %99
  %105 = load i32, i32* %8, align 4
  %106 = add nsw i32 %105, 1
  %107 = sext i32 %106 to i64
  %108 = getelementptr inbounds [400 x i32], [400 x i32]* %3, i64 0, i64 %107
  %109 = load i32, i32* %108, align 4
  %110 = load i32, i32* %8, align 4
  %111 = sext i32 %110 to i64
  %112 = getelementptr inbounds [400 x i32], [400 x i32]* %3, i64 0, i64 %111
  %113 = load i32, i32* %112, align 4
  %114 = sub nsw i32 %109, %113
  %115 = sub nsw i32 %114, 1
  %116 = call i32 (i8*, ...) @printf(i8* getelementptr inbounds ([4 x i8], [4 x i8]* @.str.1, i64 0, i64 0), i32 %115)
  br label %117

117:                                              ; preds = %104
  %118 = load i32, i32* %8, align 4
  %119 = add nsw i32 %118, 1
  store i32 %119, i32* %8, align 4
  br label %99

120:                                              ; preds = %99
  %121 = getelementptr inbounds [10000 x i8], [10000 x i8]* %2, i64 0, i64 0
  %122 = call i64 @strlen(i8* %121) #3
  %123 = sub i64 %122, 1
  %124 = load i32, i32* %6, align 4
  %125 = sub nsw i32 %124, 1
  %126 = sext i32 %125 to i64
  %127 = getelementptr inbounds [400 x i32], [400 x i32]* %3, i64 0, i64 %126
  %128 = load i32, i32* %127, align 4
  %129 = sext i32 %128 to i64
  %130 = sub i64 %123, %129
  %131 = call i32 (i8*, ...) @printf(i8* getelementptr inbounds ([3 x i8], [3 x i8]* @.str, i64 0, i64 0), i64 %130)
  br label %132

132:                                              ; preds = %120, %91
  %133 = call i32 (i8*, ...) @__isoc99_scanf(i8* getelementptr inbounds ([3 x i8], [3 x i8]* @.str, i64 0, i64 0), i32* %9)
  ret i32 0
}

declare dso_local i32 @gets(...) #1

; Function Attrs: nounwind readonly
declare dso_local i64 @strlen(i8*) #2

declare dso_local i32 @printf(i8*, ...) #1

declare dso_local i32 @__isoc99_scanf(i8*, ...) #1


!llvm.module.flags = !{!0}
!llvm.ident = !{!1}

!0 = !{i32 1, !"wchar_size", i32 4}
!1 = !{!"clang version 10.0.0-4ubuntu1 "}
